; Function Attrs: mustprogress nofree nounwind willreturn memory(read, inaccessiblemem: none) uwtable
define hidden noundef zeroext i1 @_ZNK5clang7targets13ARMTargetInfo14supportsThumb2Ev(ptr nocapture noundef nonnull readonly align 8 dereferenceable(624) %0) local_unnamed_addr #8 align 2 {
  %2 = getelementptr inbounds nuw i8, ptr %0, i64 576
  %.sroa.01.0.copyload = load ptr, ptr %2, align 8
  %.sroa.22.0..sroa_idx = getelementptr inbounds i8, ptr %0, i64 584
  %.sroa.22.0.copyload = load i64, ptr %.sroa.22.0..sroa_idx, align 8
  %.not.i = icmp eq i64 %.sroa.22.0.copyload, 3
  br i1 %.not.i, label %_ZN4llvmeqENS_9StringRefES0_.exit, label %_ZN4llvmeqENS_9StringRefES0_.exit.thread6

_ZN4llvmeqENS_9StringRefES0_.exit:                ; preds = %1
  %bcmp.i = tail call i32 @bcmp(ptr noundef nonnull dereferenceable(3) %.sroa.01.0.copyload, ptr noundef nonnull dereferenceable(3) @.str.13, i64 3)
  %3 = icmp eq i32 %bcmp.i, 0
  br i1 %3, label %_ZN4llvmneENS_9StringRefES0_.exit, label %_ZN4llvmeqENS_9StringRefES0_.exit.thread6.thread

_ZN4llvmeqENS_9StringRefES0_.exit.thread6:        ; preds = %1
  %4 = getelementptr inbounds nuw i8, ptr %0, i64 608
  %5 = load i32, ptr %4, align 8
  %6 = icmp ugt i32 %5, 6
  br i1 %6, label %10, label %_ZN4llvmneENS_9StringRefES0_.exit

_ZN4llvmeqENS_9StringRefES0_.exit.thread6.thread: ; preds = %_ZN4llvmeqENS_9StringRefES0_.exit
  %7 = getelementptr inbounds nuw i8, ptr %0, i64 608
  %8 = load i32, ptr %7, align 8
  %9 = icmp ugt i32 %8, 6
  br label %_ZN4llvmneENS_9StringRefES0_.exit

10:                                               ; preds = %_ZN4llvmeqENS_9StringRefES0_.exit.thread6
  %.not.i.i = icmp eq i64 %.sroa.22.0.copyload, 7
  br i1 %.not.i.i, label %11, label %_ZN4llvmneENS_9StringRefES0_.exit

11:                                               ; preds = %10
  %bcmp.i.i = tail call i32 @bcmp(ptr noundef nonnull dereferenceable(7) %.sroa.01.0.copyload, ptr noundef nonnull dereferenceable(7) @.str.14, i64 7)
  %12 = icmp ne i32 %bcmp.i.i, 0
  br label %_ZN4llvmneENS_9StringRefES0_.exit

_ZN4llvmneENS_9StringRefES0_.exit:                ; preds = %_ZN4llvmeqENS_9StringRefES0_.exit.thread6.thread, %11, %10, %_ZN4llvmeqENS_9StringRefES0_.exit.thread6, %_ZN4llvmeqENS_9StringRefES0_.exit
  %13 = phi i1 [ true, %_ZN4llvmeqENS_9StringRefES0_.exit ], [ false, %_ZN4llvmeqENS_9StringRefES0_.exit.thread6 ], [ %12, %11 ], [ true, %10 ], [ %9, %_ZN4llvmeqENS_9StringRefES0_.exit.thread6.thread ]
  ret i1 %13
}